target datalayout = "e-m:e-p270:32:32-p271:32:32-p272:64:64-i64:64-i128:128-f80:128-n8:16:32:64-S128"
target triple = "x86_64-unknown-linux-gnu"

%struct.MachineState = type { %struct.Object, ptr, ptr, ptr, i32, ptr, i8, i8, i8, i8, ptr, i8, i8, i8, ptr, ptr, ptr, ptr, ptr, i64, i64, i64, %struct.BootConfiguration, ptr, ptr, ptr, ptr, ptr, ptr, %struct.CpuTopology, ptr, ptr }
%struct.Object = type { ptr, ptr, ptr, i32, ptr }
%struct.BootConfiguration = type { ptr, ptr, i8, i8, ptr, i8, i64, i8, i64, i8, i8 }
%struct.CpuTopology = type { i32, i32, i32, i32, i32, i32, i32, i32, i32 }

@.str.225 = private unnamed_addr constant [8 x i8] c"machine\00", align 1
@.str.226 = private unnamed_addr constant [98 x i8] c"/home/dtcxzyw/WorkSpace/Projects/compilers/llvm-opt-benchmark/bench/qemu/qemu/include/hw/boards.h\00", align 1
@__func__.MACHINE = private unnamed_addr constant [8 x i8] c"MACHINE\00", align 1

; Function Attrs: nounwind sspstrong uwtable
define internal ptr @MACHINE(ptr noundef %obj) #0 {
entry:
  %obj.addr = alloca ptr, align 8
  store ptr %obj, ptr %obj.addr, align 8
  %0 = load ptr, ptr %obj.addr, align 8
  %call = call ptr @object_dynamic_cast_assert(ptr noundef %0, ptr noundef @.str.225, ptr noundef @.str.226, i32 noundef 23, ptr noundef @__func__.MACHINE)
  ret ptr %call
}

; Function Attrs: nounwind sspstrong uwtable
define internal void @machine_set_append(ptr noundef %obj, ptr noundef %value, ptr noundef %errp) #0 {
entry:
  %obj.addr = alloca ptr, align 8
  %value.addr = alloca ptr, align 8
  %errp.addr = alloca ptr, align 8
  %ms = alloca ptr, align 8
  store ptr %obj, ptr %obj.addr, align 8
  store ptr %value, ptr %value.addr, align 8
  store ptr %errp, ptr %errp.addr, align 8
  %0 = load ptr, ptr %obj.addr, align 8
  %call = call ptr @MACHINE(ptr noundef %0)
  store ptr %call, ptr %ms, align 8
  %1 = load ptr, ptr %ms, align 8
  %kernel_cmdline = getelementptr inbounds %struct.MachineState, ptr %1, i32 0, i32 24
  %2 = load ptr, ptr %kernel_cmdline, align 8
  call void @g_free(ptr noundef %2)
  %3 = load ptr, ptr %value.addr, align 8
  %call1 = call noalias ptr @g_strdup(ptr noundef %3)
  %4 = load ptr, ptr %ms, align 8
  %kernel_cmdline2 = getelementptr inbounds %struct.MachineState, ptr %4, i32 0, i32 24
  store ptr %call1, ptr %kernel_cmdline2, align 8
  ret void
}